; ModuleID = '9/65.c'
source_filename = "9/65.c"
target datalayout = "e-m:e-p270:32:32-p271:32:32-p272:64:64-i64:64-f80:128-n8:16:32:64-S128"
target triple = "x86_64-pc-linux-gnu"

%struct.patient = type { [10 x i8], i32 }

@.str = private unnamed_addr constant [3 x i8] c"%d\00", align 1
@.str.1 = private unnamed_addr constant [5 x i8] c"%s%d\00", align 1
@.str.2 = private unnamed_addr constant [4 x i8] c"%s\0A\00", align 1

; Function Attrs: noinline nounwind uwtable
define dso_local i32 @main() #0 {
  %1 = alloca i32, align 4
  %2 = alloca i32, align 4
  %3 = alloca i32, align 4
  %4 = alloca i32, align 4
  %5 = alloca i32, align 4
  %6 = alloca i32, align 4
  %7 = alloca [100 x %struct.patient], align 16
  %8 = alloca [100 x %struct.patient], align 16
  %9 = alloca [100 x %struct.patient], align 16
  %10 = alloca [1 x %struct.patient], align 16
  store i32 0, i32* %1, align 4
  store i32 0, i32* %5, align 4
  store i32 0, i32* %6, align 4
  %11 = call i32 (i8*, ...) @__isoc99_scanf(i8* getelementptr inbounds ([3 x i8], [3 x i8]* @.str, i64 0, i64 0), i32* %2)
  store i32 0, i32* %4, align 4
  br label %12

12:                                               ; preds = %80, %0
  %13 = load i32, i32* %4, align 4
  %14 = load i32, i32* %2, align 4
  %15 = icmp slt i32 %13, %14
  br i1 %15, label %16, label %83

16:                                               ; preds = %12
  %17 = load i32, i32* %4, align 4
  %18 = sext i32 %17 to i64
  %19 = getelementptr inbounds [100 x %struct.patient], [100 x %struct.patient]* %7, i64 0, i64 %18
  %20 = getelementptr inbounds %struct.patient, %struct.patient* %19, i32 0, i32 0
  %21 = getelementptr inbounds [10 x i8], [10 x i8]* %20, i64 0, i64 0
  %22 = load i32, i32* %4, align 4
  %23 = sext i32 %22 to i64
  %24 = getelementptr inbounds [100 x %struct.patient], [100 x %struct.patient]* %7, i64 0, i64 %23
  %25 = getelementptr inbounds %struct.patient, %struct.patient* %24, i32 0, i32 1
  %26 = call i32 (i8*, ...) @__isoc99_scanf(i8* getelementptr inbounds ([5 x i8], [5 x i8]* @.str.1, i64 0, i64 0), i8* %21, i32* %25)
  %27 = load i32, i32* %4, align 4
  %28 = sext i32 %27 to i64
  %29 = getelementptr inbounds [100 x %struct.patient], [100 x %struct.patient]* %7, i64 0, i64 %28
  %30 = getelementptr inbounds %struct.patient, %struct.patient* %29, i32 0, i32 1
  %31 = load i32, i32* %30, align 4
  %32 = icmp sge i32 %31, 60
  br i1 %32, label %33, label %56

33:                                               ; preds = %16
  %34 = load i32, i32* %5, align 4
  %35 = sext i32 %34 to i64
  %36 = getelementptr inbounds [100 x %struct.patient], [100 x %struct.patient]* %8, i64 0, i64 %35
  %37 = getelementptr inbounds %struct.patient, %struct.patient* %36, i32 0, i32 0
  %38 = getelementptr inbounds [10 x i8], [10 x i8]* %37, i64 0, i64 0
  %39 = load i32, i32* %4, align 4
  %40 = sext i32 %39 to i64
  %41 = getelementptr inbounds [100 x %struct.patient], [100 x %struct.patient]* %7, i64 0, i64 %40
  %42 = getelementptr inbounds %struct.patient, %struct.patient* %41, i32 0, i32 0
  %43 = getelementptr inbounds [10 x i8], [10 x i8]* %42, i64 0, i64 0
  %44 = call i8* @strcpy(i8* %38, i8* %43) #3
  %45 = load i32, i32* %4, align 4
  %46 = sext i32 %45 to i64
  %47 = getelementptr inbounds [100 x %struct.patient], [100 x %struct.patient]* %7, i64 0, i64 %46
  %48 = getelementptr inbounds %struct.patient, %struct.patient* %47, i32 0, i32 1
  %49 = load i32, i32* %48, align 4
  %50 = load i32, i32* %5, align 4
  %51 = sext i32 %50 to i64
  %52 = getelementptr inbounds [100 x %struct.patient], [100 x %struct.patient]* %8, i64 0, i64 %51
  %53 = getelementptr inbounds %struct.patient, %struct.patient* %52, i32 0, i32 1
  store i32 %49, i32* %53, align 4
  %54 = load i32, i32* %5, align 4
  %55 = add nsw i32 %54, 1
  store i32 %55, i32* %5, align 4
  br label %79

56:                                               ; preds = %16
  %57 = load i32, i32* %6, align 4
  %58 = sext i32 %57 to i64
  %59 = getelementptr inbounds [100 x %struct.patient], [100 x %struct.patient]* %9, i64 0, i64 %58
  %60 = getelementptr inbounds %struct.patient, %struct.patient* %59, i32 0, i32 0
  %61 = getelementptr inbounds [10 x i8], [10 x i8]* %60, i64 0, i64 0
  %62 = load i32, i32* %4, align 4
  %63 = sext i32 %62 to i64
  %64 = getelementptr inbounds [100 x %struct.patient], [100 x %struct.patient]* %7, i64 0, i64 %63
  %65 = getelementptr inbounds %struct.patient, %struct.patient* %64, i32 0, i32 0
  %66 = getelementptr inbounds [10 x i8], [10 x i8]* %65, i64 0, i64 0
  %67 = call i8* @strcpy(i8* %61, i8* %66) #3
  %68 = load i32, i32* %4, align 4
  %69 = sext i32 %68 to i64
  %70 = getelementptr inbounds [100 x %struct.patient], [100 x %struct.patient]* %7, i64 0, i64 %69
  %71 = getelementptr inbounds %struct.patient, %struct.patient* %70, i32 0, i32 1
  %72 = load i32, i32* %71, align 4
  %73 = load i32, i32* %6, align 4
  %74 = sext i32 %73 to i64
  %75 = getelementptr inbounds [100 x %struct.patient], [100 x %struct.patient]* %9, i64 0, i64 %74
  %76 = getelementptr inbounds %struct.patient, %struct.patient* %75, i32 0, i32 1
  store i32 %72, i32* %76, align 4
  %77 = load i32, i32* %6, align 4
  %78 = add nsw i32 %77, 1
  store i32 %78, i32* %6, align 4
  br label %79

79:                                               ; preds = %56, %33
  br label %80

80:                                               ; preds = %79
  %81 = load i32, i32* %4, align 4
  %82 = add nsw i32 %81, 1
  store i32 %82, i32* %4, align 4
  br label %12

83:                                               ; preds = %12
  %84 = load i32, i32* %5, align 4
  store i32 %84, i32* %3, align 4
  store i32 1, i32* %5, align 4
  br label %85

85:                                               ; preds = %173, %83
  %86 = load i32, i32* %5, align 4
  %87 = load i32, i32* %3, align 4
  %88 = sub nsw i32 %87, 1
  %89 = icmp sle i32 %86, %88
  br i1 %89, label %90, label %176

90:                                               ; preds = %85
  store i32 0, i32* %4, align 4
  br label %91

91:                                               ; preds = %169, %90
  %92 = load i32, i32* %4, align 4
  %93 = load i32, i32* %3, align 4
  %94 = sub nsw i32 %93, 1
  %95 = load i32, i32* %5, align 4
  %96 = sub nsw i32 %94, %95
  %97 = icmp sle i32 %92, %96
  br i1 %97, label %98, label %172

98:                                               ; preds = %91
  %99 = load i32, i32* %4, align 4
  %100 = sext i32 %99 to i64
  %101 = getelementptr inbounds [100 x %struct.patient], [100 x %struct.patient]* %8, i64 0, i64 %100
  %102 = getelementptr inbounds %struct.patient, %struct.patient* %101, i32 0, i32 1
  %103 = load i32, i32* %102, align 4
  %104 = load i32, i32* %4, align 4
  %105 = add nsw i32 %104, 1
  %106 = sext i32 %105 to i64
  %107 = getelementptr inbounds [100 x %struct.patient], [100 x %struct.patient]* %8, i64 0, i64 %106
  %108 = getelementptr inbounds %struct.patient, %struct.patient* %107, i32 0, i32 1
  %109 = load i32, i32* %108, align 4
  %110 = icmp slt i32 %103, %109
  br i1 %110, label %111, label %168

111:                                              ; preds = %98
  %112 = getelementptr inbounds [1 x %struct.patient], [1 x %struct.patient]* %10, i64 0, i64 0
  %113 = getelementptr inbounds %struct.patient, %struct.patient* %112, i32 0, i32 0
  %114 = getelementptr inbounds [10 x i8], [10 x i8]* %113, i64 0, i64 0
  %115 = load i32, i32* %4, align 4
  %116 = sext i32 %115 to i64
  %117 = getelementptr inbounds [100 x %struct.patient], [100 x %struct.patient]* %8, i64 0, i64 %116
  %118 = getelementptr inbounds %struct.patient, %struct.patient* %117, i32 0, i32 0
  %119 = getelementptr inbounds [10 x i8], [10 x i8]* %118, i64 0, i64 0
  %120 = call i8* @strcpy(i8* %114, i8* %119) #3
  %121 = load i32, i32* %4, align 4
  %122 = sext i32 %121 to i64
  %123 = getelementptr inbounds [100 x %struct.patient], [100 x %struct.patient]* %8, i64 0, i64 %122
  %124 = getelementptr inbounds %struct.patient, %struct.patient* %123, i32 0, i32 1
  %125 = load i32, i32* %124, align 4
  %126 = getelementptr inbounds [1 x %struct.patient], [1 x %struct.patient]* %10, i64 0, i64 0
  %127 = getelementptr inbounds %struct.patient, %struct.patient* %126, i32 0, i32 1
  store i32 %125, i32* %127, align 4
  %128 = load i32, i32* %4, align 4
  %129 = sext i32 %128 to i64
  %130 = getelementptr inbounds [100 x %struct.patient], [100 x %struct.patient]* %8, i64 0, i64 %129
  %131 = getelementptr inbounds %struct.patient, %struct.patient* %130, i32 0, i32 0
  %132 = getelementptr inbounds [10 x i8], [10 x i8]* %131, i64 0, i64 0
  %133 = load i32, i32* %4, align 4
  %134 = add nsw i32 %133, 1
  %135 = sext i32 %134 to i64
  %136 = getelementptr inbounds [100 x %struct.patient], [100 x %struct.patient]* %8, i64 0, i64 %135
  %137 = getelementptr inbounds %struct.patient, %struct.patient* %136, i32 0, i32 0
  %138 = getelementptr inbounds [10 x i8], [10 x i8]* %137, i64 0, i64 0
  %139 = call i8* @strcpy(i8* %132, i8* %138) #3
  %140 = load i32, i32* %4, align 4
  %141 = add nsw i32 %140, 1
  %142 = sext i32 %141 to i64
  %143 = getelementptr inbounds [100 x %struct.patient], [100 x %struct.patient]* %8, i64 0, i64 %142
  %144 = getelementptr inbounds %struct.patient, %struct.patient* %143, i32 0, i32 1
  %145 = load i32, i32* %144, align 4
  %146 = load i32, i32* %4, align 4
  %147 = sext i32 %146 to i64
  %148 = getelementptr inbounds [100 x %struct.patient], [100 x %struct.patient]* %8, i64 0, i64 %147
  %149 = getelementptr inbounds %struct.patient, %struct.patient* %148, i32 0, i32 1
  store i32 %145, i32* %149, align 4
  %150 = load i32, i32* %4, align 4
  %151 = add nsw i32 %150, 1
  %152 = sext i32 %151 to i64
  %153 = getelementptr inbounds [100 x %struct.patient], [100 x %struct.patient]* %8, i64 0, i64 %152
  %154 = getelementptr inbounds %struct.patient, %struct.patient* %153, i32 0, i32 0
  %155 = getelementptr inbounds [10 x i8], [10 x i8]* %154, i64 0, i64 0
  %156 = getelementptr inbounds [1 x %struct.patient], [1 x %struct.patient]* %10, i64 0, i64 0
  %157 = getelementptr inbounds %struct.patient, %struct.patient* %156, i32 0, i32 0
  %158 = getelementptr inbounds [10 x i8], [10 x i8]* %157, i64 0, i64 0
  %159 = call i8* @strcpy(i8* %155, i8* %158) #3
  %160 = getelementptr inbounds [1 x %struct.patient], [1 x %struct.patient]* %10, i64 0, i64 0
  %161 = getelementptr inbounds %struct.patient, %struct.patient* %160, i32 0, i32 1
  %162 = load i32, i32* %161, align 4
  %163 = load i32, i32* %4, align 4
  %164 = add nsw i32 %163, 1
  %165 = sext i32 %164 to i64
  %166 = getelementptr inbounds [100 x %struct.patient], [100 x %struct.patient]* %8, i64 0, i64 %165
  %167 = getelementptr inbounds %struct.patient, %struct.patient* %166, i32 0, i32 1
  store i32 %162, i32* %167, align 4
  br label %168

168:                                              ; preds = %111, %98
  br label %169

169:                                              ; preds = %168
  %170 = load i32, i32* %4, align 4
  %171 = add nsw i32 %170, 1
  store i32 %171, i32* %4, align 4
  br label %91

172:                                              ; preds = %91
  br label %173

173:                                              ; preds = %172
  %174 = load i32, i32* %5, align 4
  %175 = add nsw i32 %174, 1
  store i32 %175, i32* %5, align 4
  br label %85

176:                                              ; preds = %85
  store i32 0, i32* %4, align 4
  br label %177

177:                                              ; preds = %188, %176
  %178 = load i32, i32* %4, align 4
  %179 = load i32, i32* %3, align 4
  %180 = icmp slt i32 %178, %179
  br i1 %180, label %181, label %191

181:                                              ; preds = %177
  %182 = load i32, i32* %4, align 4
  %183 = sext i32 %182 to i64
  %184 = getelementptr inbounds [100 x %struct.patient], [100 x %struct.patient]* %8, i64 0, i64 %183
  %185 = getelementptr inbounds %struct.patient, %struct.patient* %184, i32 0, i32 0
  %186 = getelementptr inbounds [10 x i8], [10 x i8]* %185, i64 0, i64 0
  %187 = call i32 (i8*, ...) @printf(i8* getelementptr inbounds ([4 x i8], [4 x i8]* @.str.2, i64 0, i64 0), i8* %186)
  br label %188

188:                                              ; preds = %181
  %189 = load i32, i32* %4, align 4
  %190 = add nsw i32 %189, 1
  store i32 %190, i32* %4, align 4
  br label %177

191:                                              ; preds = %177
  store i32 0, i32* %4, align 4
  br label %192

192:                                              ; preds = %203, %191
  %193 = load i32, i32* %4, align 4
  %194 = load i32, i32* %6, align 4
  %195 = icmp slt i32 %193, %194
  br i1 %195, label %196, label %206

196:                                              ; preds = %192
  %197 = load i32, i32* %4, align 4
  %198 = sext i32 %197 to i64
  %199 = getelementptr inbounds [100 x %struct.patient], [100 x %struct.patient]* %9, i64 0, i64 %198
  %200 = getelementptr inbounds %struct.patient, %struct.patient* %199, i32 0, i32 0
  %201 = getelementptr inbounds [10 x i8], [10 x i8]* %200, i64 0, i64 0
  %202 = call i32 (i8*, ...) @printf(i8* getelementptr inbounds ([4 x i8], [4 x i8]* @.str.2, i64 0, i64 0), i8* %201)
  br label %203

203:                                              ; preds = %196
  %204 = load i32, i32* %4, align 4
  %205 = add nsw i32 %204, 1
  store i32 %205, i32* %4, align 4
  br label %192

206:                                              ; preds = %192
  ret i32 0
}

declare dso_local i32 @__isoc99_scanf(i8*, ...) #1

; Function Attrs: nounwind
declare dso_local i8* @strcpy(i8*, i8*) #2

declare dso_local i32 @printf(i8*, ...) #1


!llvm.module.flags = !{!0}
!llvm.ident = !{!1}

!0 = !{i32 1, !"wchar_size", i32 4}
!1 = !{!"clang version 10.0.0-4ubuntu1 "}
